target datalayout = "e-m:e-p270:32:32-p271:32:32-p272:64:64-i64:64-i128:128-f80:128-n8:16:32:64-S128"
target triple = "x86_64-pc-linux-gnu"

%"class.Assimp::ASE::Parser" = type <{ ptr, ptr, %struct.aiColor3D, %struct.aiColor3D, %"class.std::vector", %"class.std::vector.0", %"class.std::vector.5", %"class.std::vector.10", %"class.std::vector.15", i32, i32, i32, i32, i32, i8, [3 x i8], i32, [4 x i8] }>
%struct.aiColor3D = type { float, float, float }
%"class.std::vector" = type { %"struct.std::_Vector_base" }
%"struct.std::_Vector_base" = type { %"struct.std::_Vector_base<Assimp::ASE::Material, std::allocator<Assimp::ASE::Material>>::_Vector_impl" }
%"struct.std::_Vector_base<Assimp::ASE::Material, std::allocator<Assimp::ASE::Material>>::_Vector_impl" = type { %"struct.std::_Vector_base<Assimp::ASE::Material, std::allocator<Assimp::ASE::Material>>::_Vector_impl_data" }
%"struct.std::_Vector_base<Assimp::ASE::Material, std::allocator<Assimp::ASE::Material>>::_Vector_impl_data" = type { ptr, ptr, ptr }
%"class.std::vector.0" = type { %"struct.std::_Vector_base.1" }
%"struct.std::_Vector_base.1" = type { %"struct.std::_Vector_base<Assimp::ASE::Mesh, std::allocator<Assimp::ASE::Mesh>>::_Vector_impl" }
%"struct.std::_Vector_base<Assimp::ASE::Mesh, std::allocator<Assimp::ASE::Mesh>>::_Vector_impl" = type { %"struct.std::_Vector_base<Assimp::ASE::Mesh, std::allocator<Assimp::ASE::Mesh>>::_Vector_impl_data" }
%"struct.std::_Vector_base<Assimp::ASE::Mesh, std::allocator<Assimp::ASE::Mesh>>::_Vector_impl_data" = type { ptr, ptr, ptr }
%"class.std::vector.5" = type { %"struct.std::_Vector_base.6" }
%"struct.std::_Vector_base.6" = type { %"struct.std::_Vector_base<Assimp::ASE::Dummy, std::allocator<Assimp::ASE::Dummy>>::_Vector_impl" }
%"struct.std::_Vector_base<Assimp::ASE::Dummy, std::allocator<Assimp::ASE::Dummy>>::_Vector_impl" = type { %"struct.std::_Vector_base<Assimp::ASE::Dummy, std::allocator<Assimp::ASE::Dummy>>::_Vector_impl_data" }
%"struct.std::_Vector_base<Assimp::ASE::Dummy, std::allocator<Assimp::ASE::Dummy>>::_Vector_impl_data" = type { ptr, ptr, ptr }
%"class.std::vector.10" = type { %"struct.std::_Vector_base.11" }
%"struct.std::_Vector_base.11" = type { %"struct.std::_Vector_base<Assimp::ASE::Light, std::allocator<Assimp::ASE::Light>>::_Vector_impl" }
%"struct.std::_Vector_base<Assimp::ASE::Light, std::allocator<Assimp::ASE::Light>>::_Vector_impl" = type { %"struct.std::_Vector_base<Assimp::ASE::Light, std::allocator<Assimp::ASE::Light>>::_Vector_impl_data" }
%"struct.std::_Vector_base<Assimp::ASE::Light, std::allocator<Assimp::ASE::Light>>::_Vector_impl_data" = type { ptr, ptr, ptr }
%"class.std::vector.15" = type { %"struct.std::_Vector_base.16" }
%"struct.std::_Vector_base.16" = type { %"struct.std::_Vector_base<Assimp::ASE::Camera, std::allocator<Assimp::ASE::Camera>>::_Vector_impl" }
%"struct.std::_Vector_base<Assimp::ASE::Camera, std::allocator<Assimp::ASE::Camera>>::_Vector_impl" = type { %"struct.std::_Vector_base<Assimp::ASE::Camera, std::allocator<Assimp::ASE::Camera>>::_Vector_impl_data" }
%"struct.std::_Vector_base<Assimp::ASE::Camera, std::allocator<Assimp::ASE::Camera>>::_Vector_impl_data" = type { ptr, ptr, ptr }

@.str = private unnamed_addr constant [12 x i8] c"Line %u: %s\00", align 1

; Function Attrs: mustprogress uwtable
define hidden void @_ZN6Assimp3ASE6Parser7LogInfoEPKc(ptr noundef nonnull align 8 dereferenceable(188) %0, ptr noundef %1) #0 align 2 {
  %3 = alloca ptr, align 8
  %4 = alloca ptr, align 8
  %5 = alloca [1024 x i8], align 16
  store ptr %0, ptr %3, align 8
  store ptr %1, ptr %4, align 8
  %6 = load ptr, ptr %3, align 8
  call void @llvm.lifetime.start.p0(i64 1024, ptr %5) #20
  %7 = getelementptr inbounds [1024 x i8], ptr %5, i64 0, i64 0
  %8 = getelementptr inbounds nuw %"class.Assimp::ASE::Parser", ptr %6, i32 0, i32 9
  %9 = load i32, ptr %8, align 8
  %10 = load ptr, ptr %4, align 8
  %11 = call i32 (ptr, i64, ptr, ...) @snprintf(ptr noundef %7, i64 noundef 1024, ptr noundef @.str, i32 noundef %9, ptr noundef %10) #20
  %12 = call noundef ptr @_ZN6Assimp13DefaultLogger3getEv()
  call void @_ZN6Assimp6Logger4infoIJRA1024_cEEEvDpOT_(ptr noundef nonnull align 8 dereferenceable(12) %12, ptr noundef nonnull align 1 dereferenceable(1024) %5)
  call void @llvm.lifetime.end.p0(i64 1024, ptr %5) #20
  ret void
}